; Function Attrs: mustprogress nofree norecurse nosync nounwind willreturn memory(readwrite, inaccessiblemem: none) uwtable
define dso_local void @set_ps_display_with_len(ptr noundef readonly captures(none) %0, i64 noundef %1) local_unnamed_addr #9 {
  %3 = load i8, ptr @update_process_title, align 1, !range !9, !noundef !10
  %4 = trunc nuw i8 %3 to i1
  br i1 %4, label %5, label %update_ps_display_precheck.exit.thread

5:                                                ; preds = %2
  %6 = load i8, ptr @IsUnderPostmaster, align 1, !range !9, !noundef !10
  %7 = trunc nuw i8 %6 to i1
  %8 = load ptr, ptr @ps_buffer, align 8
  %.not.i = icmp ne ptr %8, null
  %or.cond = select i1 %7, i1 %.not.i, i1 false
  br i1 %or.cond, label %9, label %update_ps_display_precheck.exit.thread

9:                                                ; preds = %5
  store i64 0, ptr @ps_buffer_nosuffix_len, align 8
  %10 = load i64, ptr @ps_buffer_fixed_size, align 8
  %11 = add i64 %10, %1
  %12 = load i64, ptr @ps_buffer_size, align 8
  %.not = icmp ult i64 %11, %12
  %13 = getelementptr inbounds nuw i8, ptr %8, i64 %10
  br i1 %.not, label %20, label %14

14:                                               ; preds = %9
  %15 = xor i64 %10, -1
  %16 = add i64 %12, %15
  tail call void @llvm.memcpy.p0.p0.i64(ptr nonnull align 1 %13, ptr align 1 %0, i64 %16, i1 false)
  %17 = getelementptr i8, ptr %8, i64 %12
  %18 = getelementptr i8, ptr %17, i64 -1
  store i8 0, ptr %18, align 1
  %19 = add i64 %12, -1
  br label %22

20:                                               ; preds = %9
  %21 = add i64 %1, 1
  tail call void @llvm.memcpy.p0.p0.i64(ptr nonnull align 1 %13, ptr align 1 %0, i64 %21, i1 false)
  br label %22

22:                                               ; preds = %20, %14
  %storemerge = phi i64 [ %11, %20 ], [ %19, %14 ]
  store i64 %storemerge, ptr @ps_buffer_cur_len, align 8
  %23 = load i64, ptr @last_status_len, align 8
  %24 = icmp ugt i64 %23, %storemerge
  br i1 %24, label %25, label %flush_ps_display.exit

25:                                               ; preds = %22
  %26 = ptrtoint ptr %8 to i64
  %27 = getelementptr inbounds nuw i8, ptr %8, i64 %storemerge
  %28 = sub nuw i64 %23, %storemerge
  %29 = ptrtoint ptr %27 to i64
  %30 = and i64 %29, 7
  %31 = icmp eq i64 %30, 0
  br i1 %31, label %32, label %flush_ps_display.exit.sink.split

32:                                               ; preds = %25
  %33 = and i64 %28, 7
  %34 = icmp eq i64 %33, 0
  %35 = icmp ult i64 %28, 1025
  %or.cond3.i = and i1 %35, %34
  br i1 %or.cond3.i, label %.lr.ph.preheader.i, label %flush_ps_display.exit.sink.split

.lr.ph.preheader.i:                               ; preds = %32
  %36 = add i64 %storemerge, 8
  %37 = add i64 %36, %26
  %38 = add i64 %23, %26
  %umax.i = tail call i64 @llvm.umax.i64(i64 %37, i64 %38)
  %39 = xor i64 %storemerge, -1
  %40 = sub i64 %39, %26
  %41 = add i64 %40, %umax.i
  %42 = and i64 %41, -8
  %43 = add i64 %42, 8
  br label %flush_ps_display.exit.sink.split

flush_ps_display.exit.sink.split:                 ; preds = %25, %32, %.lr.ph.preheader.i
  %.sink = phi i64 [ %43, %.lr.ph.preheader.i ], [ %28, %32 ], [ %28, %25 ]
  tail call void @llvm.memset.p0.i64(ptr nonnull align 1 %27, i8 0, i64 %.sink, i1 false)
  br label %flush_ps_display.exit

flush_ps_display.exit:                            ; preds = %flush_ps_display.exit.sink.split, %22
  store i64 %storemerge, ptr @last_status_len, align 8
  br label %update_ps_display_precheck.exit.thread

update_ps_display_precheck.exit.thread:           ; preds = %5, %2, %flush_ps_display.exit
  ret void
}